target datalayout = "e-m:e-p270:32:32-p271:32:32-p272:64:64-i64:64-i128:128-f80:128-n8:16:32:64-S128"
target triple = "x86_64-pc-linux-gnu"

%struct.hf_register_info = type { ptr, %struct._header_field_info }
%struct._header_field_info = type { ptr, ptr, i32, i32, ptr, i64, ptr, i32, i32, i32, i32, ptr }
%struct.FCOSRegisterDef = type { i32, i32, ptr, ptr, i32, i32, ptr }

@proto_register_FiveCoLegacy.hf = internal global [44 x %struct.hf_register_info] zeroinitializer, align 16
@proto_register_FiveCoLegacy.ett = internal global [4 x ptr] [ptr @ett_fiveco_header, ptr @ett_fiveco_data, ptr @ett_fiveco, ptr @ett_fiveco_checksum], align 16
@.str = private unnamed_addr constant [41 x i8] c"FiveCo's Legacy Register Access Protocol\00", align 1
@.str.1 = private unnamed_addr constant [11 x i8] c"5co-legacy\00", align 1
@.str.2 = private unnamed_addr constant [11 x i8] c"5co_legacy\00", align 1
@proto_FiveCoLegacy = internal global i32 0, align 4
@FiveCoLegacy_handle = internal global ptr null, align 8
@FiveCo_requests_hash = internal global ptr null, align 8

; Function Attrs: null_pointer_is_valid sspstrong uwtable
define hidden void @proto_register_FiveCoLegacy() #0 {
  %1 = alloca i32, align 4
  %2 = alloca i32, align 4
  %3 = alloca %struct.hf_register_info, align 8
  %4 = alloca %struct.hf_register_info, align 8
  call void @llvm.lifetime.start.p0(i64 4, ptr %1) #7
  store i32 0, ptr %1, align 4
  br label %5

5:                                                ; preds = %17, %0
  %6 = load i32, ptr %1, align 4
  %7 = zext i32 %6 to i64
  %8 = icmp ult i64 %7, 22
  br i1 %8, label %10, label %9

9:                                                ; preds = %5
  call void @llvm.lifetime.end.p0(i64 4, ptr %1) #7
  br label %20

10:                                               ; preds = %5
  %11 = load i32, ptr %1, align 4
  %12 = zext i32 %11 to i64
  %13 = getelementptr [44 x %struct.hf_register_info], ptr @proto_register_FiveCoLegacy.hf, i64 0, i64 %12
  %14 = load i32, ptr %1, align 4
  %15 = zext i32 %14 to i64
  %16 = getelementptr [22 x %struct.hf_register_info], ptr @hf_base, i64 0, i64 %15
  call void @llvm.memcpy.p0.p0.i64(ptr align 16 %13, ptr align 16 %16, i64 80, i1 false)
  br label %17

17:                                               ; preds = %10
  %18 = load i32, ptr %1, align 4
  %19 = add i32 %18, 1
  store i32 %19, ptr %1, align 4
  br label %5, !llvm.loop !6

20:                                               ; preds = %9
  call void @llvm.lifetime.start.p0(i64 4, ptr %2) #7
  store i32 0, ptr %2, align 4
  br label %21

21:                                               ; preds = %110, %20
  %22 = load i32, ptr %2, align 4
  %23 = zext i32 %22 to i64
  %24 = icmp ult i64 %23, 22
  br i1 %24, label %26, label %25

25:                                               ; preds = %21
  call void @llvm.lifetime.end.p0(i64 4, ptr %2) #7
  br label %113

26:                                               ; preds = %21
  %27 = load i32, ptr %2, align 4
  %28 = zext i32 %27 to i64
  %29 = getelementptr [22 x %struct.FCOSRegisterDef], ptr @aRegisters, i64 0, i64 %28
  %30 = getelementptr inbounds nuw %struct.FCOSRegisterDef, ptr %29, i32 0, i32 6
  %31 = load ptr, ptr %30, align 8
  %32 = icmp ne ptr %31, null
  br i1 %32, label %33, label %76

33:                                               ; preds = %26
  call void @llvm.lifetime.start.p0(i64 80, ptr %3) #7
  %34 = getelementptr inbounds nuw %struct.hf_register_info, ptr %3, i32 0, i32 0
  %35 = load i32, ptr %2, align 4
  %36 = zext i32 %35 to i64
  %37 = getelementptr [22 x %struct.FCOSRegisterDef], ptr @aRegisters, i64 0, i64 %36
  %38 = getelementptr inbounds nuw %struct.FCOSRegisterDef, ptr %37, i32 0, i32 5
  store ptr %38, ptr %34, align 8
  %39 = getelementptr inbounds nuw %struct.hf_register_info, ptr %3, i32 0, i32 1
  %40 = getelementptr inbounds nuw %struct._header_field_info, ptr %39, i32 0, i32 0
  %41 = load i32, ptr %2, align 4
  %42 = zext i32 %41 to i64
  %43 = getelementptr [22 x %struct.FCOSRegisterDef], ptr @aRegisters, i64 0, i64 %42
  %44 = getelementptr inbounds nuw %struct.FCOSRegisterDef, ptr %43, i32 0, i32 2
  %45 = load ptr, ptr %44, align 8
  store ptr %45, ptr %40, align 8
  %46 = getelementptr inbounds nuw %struct._header_field_info, ptr %39, i32 0, i32 1
  %47 = load i32, ptr %2, align 4
  %48 = zext i32 %47 to i64
  %49 = getelementptr [22 x %struct.FCOSRegisterDef], ptr @aRegisters, i64 0, i64 %48
  %50 = getelementptr inbounds nuw %struct.FCOSRegisterDef, ptr %49, i32 0, i32 3
  %51 = load ptr, ptr %50, align 8
  store ptr %51, ptr %46, align 8
  %52 = getelementptr inbounds nuw %struct._header_field_info, ptr %39, i32 0, i32 2
  %53 = load i32, ptr %2, align 4
  %54 = zext i32 %53 to i64
  %55 = getelementptr [22 x %struct.FCOSRegisterDef], ptr @aRegisters, i64 0, i64 %54
  %56 = getelementptr inbounds nuw %struct.FCOSRegisterDef, ptr %55, i32 0, i32 4
  %57 = load i32, ptr %56, align 8
  store i32 %57, ptr %52, align 8
  %58 = getelementptr inbounds nuw %struct._header_field_info, ptr %39, i32 0, i32 3
  store i32 6, ptr %58, align 4
  %59 = getelementptr inbounds nuw %struct._header_field_info, ptr %39, i32 0, i32 4
  %60 = load i32, ptr %2, align 4
  %61 = zext i32 %60 to i64
  %62 = getelementptr [22 x %struct.FCOSRegisterDef], ptr @aRegisters, i64 0, i64 %61
  %63 = getelementptr inbounds nuw %struct.FCOSRegisterDef, ptr %62, i32 0, i32 6
  %64 = load ptr, ptr %63, align 8
  store ptr %64, ptr %59, align 8
  %65 = getelementptr inbounds nuw %struct._header_field_info, ptr %39, i32 0, i32 5
  store i64 0, ptr %65, align 8
  %66 = getelementptr inbounds nuw %struct._header_field_info, ptr %39, i32 0, i32 6
  store ptr null, ptr %66, align 8
  %67 = getelementptr inbounds nuw %struct._header_field_info, ptr %39, i32 0, i32 7
  store i32 -1, ptr %67, align 8
  %68 = getelementptr inbounds nuw %struct._header_field_info, ptr %39, i32 0, i32 8
  store i32 0, ptr %68, align 4
  %69 = getelementptr inbounds nuw %struct._header_field_info, ptr %39, i32 0, i32 9
  store i32 0, ptr %69, align 8
  %70 = getelementptr inbounds nuw %struct._header_field_info, ptr %39, i32 0, i32 10
  store i32 -1, ptr %70, align 4
  %71 = getelementptr inbounds nuw %struct._header_field_info, ptr %39, i32 0, i32 11
  store ptr null, ptr %71, align 8
  %72 = load i32, ptr %2, align 4
  %73 = zext i32 %72 to i64
  %74 = add i64 22, %73
  %75 = getelementptr [44 x %struct.hf_register_info], ptr @proto_register_FiveCoLegacy.hf, i64 0, i64 %74
  call void @llvm.memcpy.p0.p0.i64(ptr align 16 %75, ptr align 8 %3, i64 80, i1 false)
  call void @llvm.lifetime.end.p0(i64 80, ptr %3) #7
  br label %109

76:                                               ; preds = %26
  call void @llvm.lifetime.start.p0(i64 80, ptr %4) #7
  %77 = getelementptr inbounds nuw %struct.hf_register_info, ptr %4, i32 0, i32 0
  %78 = load i32, ptr %2, align 4
  %79 = zext i32 %78 to i64
  %80 = getelementptr [22 x %struct.FCOSRegisterDef], ptr @aRegisters, i64 0, i64 %79
  %81 = getelementptr inbounds nuw %struct.FCOSRegisterDef, ptr %80, i32 0, i32 5
  store ptr %81, ptr %77, align 8
  %82 = getelementptr inbounds nuw %struct.hf_register_info, ptr %4, i32 0, i32 1
  %83 = getelementptr inbounds nuw %struct._header_field_info, ptr %82, i32 0, i32 0
  %84 = load i32, ptr %2, align 4
  %85 = zext i32 %84 to i64
  %86 = getelementptr [22 x %struct.FCOSRegisterDef], ptr @aRegisters, i64 0, i64 %85
  %87 = getelementptr inbounds nuw %struct.FCOSRegisterDef, ptr %86, i32 0, i32 2
  %88 = load ptr, ptr %87, align 8
  store ptr %88, ptr %83, align 8
  %89 = getelementptr inbounds nuw %struct._header_field_info, ptr %82, i32 0, i32 1
  %90 = load i32, ptr %2, align 4
  %91 = zext i32 %90 to i64
  %92 = getelementptr [22 x %struct.FCOSRegisterDef], ptr @aRegisters, i64 0, i64 %91
  %93 = getelementptr inbounds nuw %struct.FCOSRegisterDef, ptr %92, i32 0, i32 3
  %94 = load ptr, ptr %93, align 8
  store ptr %94, ptr %89, align 8
  %95 = getelementptr inbounds nuw %struct._header_field_info, ptr %82, i32 0, i32 2
  store i32 0, ptr %95, align 8
  %96 = getelementptr inbounds nuw %struct._header_field_info, ptr %82, i32 0, i32 3
  store i32 0, ptr %96, align 4
  %97 = getelementptr inbounds nuw %struct._header_field_info, ptr %82, i32 0, i32 4
  store ptr null, ptr %97, align 8
  %98 = getelementptr inbounds nuw %struct._header_field_info, ptr %82, i32 0, i32 5
  store i64 0, ptr %98, align 8
  %99 = getelementptr inbounds nuw %struct._header_field_info, ptr %82, i32 0, i32 6
  store ptr null, ptr %99, align 8
  %100 = getelementptr inbounds nuw %struct._header_field_info, ptr %82, i32 0, i32 7
  store i32 -1, ptr %100, align 8
  %101 = getelementptr inbounds nuw %struct._header_field_info, ptr %82, i32 0, i32 8
  store i32 0, ptr %101, align 4
  %102 = getelementptr inbounds nuw %struct._header_field_info, ptr %82, i32 0, i32 9
  store i32 0, ptr %102, align 8
  %103 = getelementptr inbounds nuw %struct._header_field_info, ptr %82, i32 0, i32 10
  store i32 -1, ptr %103, align 4
  %104 = getelementptr inbounds nuw %struct._header_field_info, ptr %82, i32 0, i32 11
  store ptr null, ptr %104, align 8
  %105 = load i32, ptr %2, align 4
  %106 = zext i32 %105 to i64
  %107 = add i64 22, %106
  %108 = getelementptr [44 x %struct.hf_register_info], ptr @proto_register_FiveCoLegacy.hf, i64 0, i64 %107
  call void @llvm.memcpy.p0.p0.i64(ptr align 16 %108, ptr align 8 %4, i64 80, i1 false)
  call void @llvm.lifetime.end.p0(i64 80, ptr %4) #7
  br label %109

109:                                              ; preds = %76, %33
  br label %110

110:                                              ; preds = %109
  %111 = load i32, ptr %2, align 4
  %112 = add i32 %111, 1
  store i32 %112, ptr %2, align 4
  br label %21, !llvm.loop !8

113:                                              ; preds = %25
  %114 = call i32 @proto_register_protocol(ptr noundef @.str, ptr noundef @.str.1, ptr noundef @.str.2)
  store i32 %114, ptr @proto_FiveCoLegacy, align 4
  %115 = load i32, ptr @proto_FiveCoLegacy, align 4
  call void @proto_register_field_array(i32 noundef %115, ptr noundef @proto_register_FiveCoLegacy.hf, i32 noundef 44)
  call void @proto_register_subtree_array(ptr noundef @proto_register_FiveCoLegacy.ett, i32 noundef 4)
  %116 = load i32, ptr @proto_FiveCoLegacy, align 4
  %117 = call ptr @register_dissector(ptr noundef @.str.2, ptr noundef @dissect_FiveCoLegacy, i32 noundef %116)
  store ptr %117, ptr @FiveCoLegacy_handle, align 8
  %118 = call ptr @wmem_epan_scope()
  %119 = call ptr @wmem_file_scope()
  %120 = call noalias ptr @wmem_map_new_autoreset(ptr noundef %118, ptr noundef %119, ptr noundef @fiveco_hash, ptr noundef @fiveco_hash_equal)
  store ptr %120, ptr @FiveCo_requests_hash, align 8
  %121 = load i32, ptr @proto_FiveCoLegacy, align 4
  %122 = call ptr @prefs_register_protocol(i32 noundef %121, ptr noundef null)
  ret void
}