; Function Attrs: null_pointer_is_valid sspstrong uwtable
define hidden void @proto_register_FiveCoLegacy() local_unnamed_addr #0 {
.preheader.preheader:
  tail call void @llvm.memcpy.p0.p0.i64(ptr noundef nonnull align 16 dereferenceable(1760) @proto_register_FiveCoLegacy.hf, ptr noundef nonnull align 16 dereferenceable(1760) @hf_base, i64 1760, i1 false)
  br label %.preheader

0:                                                ; preds = %25
  %1 = tail call i32 @proto_register_protocol(ptr noundef nonnull @.str, ptr noundef nonnull @.str.1, ptr noundef nonnull @.str.2)
  store i32 %1, ptr @proto_FiveCoLegacy, align 4
  tail call void @proto_register_field_array(i32 noundef %1, ptr noundef nonnull @proto_register_FiveCoLegacy.hf, i32 noundef 44)
  tail call void @proto_register_subtree_array(ptr noundef nonnull @proto_register_FiveCoLegacy.ett, i32 noundef 4)
  %2 = load i32, ptr @proto_FiveCoLegacy, align 4
  %3 = tail call ptr @register_dissector(ptr noundef nonnull @.str.2, ptr noundef nonnull @dissect_FiveCoLegacy, i32 noundef %2)
  store ptr %3, ptr @FiveCoLegacy_handle, align 8
  %4 = tail call ptr @wmem_epan_scope()
  %5 = tail call ptr @wmem_file_scope()
  %6 = tail call noalias ptr @wmem_map_new_autoreset(ptr noundef %4, ptr noundef %5, ptr noundef nonnull @fiveco_hash, ptr noundef nonnull @fiveco_hash_equal)
  store ptr %6, ptr @FiveCo_requests_hash, align 8
  %7 = load i32, ptr @proto_FiveCoLegacy, align 4
  %8 = tail call ptr @prefs_register_protocol(i32 noundef %7, ptr noundef null)
  ret void

.preheader:                                       ; preds = %.preheader.preheader, %25
  %indvars.iv = phi i64 [ 0, %.preheader.preheader ], [ %indvars.iv.next, %25 ]
  %9 = getelementptr [22 x %struct.FCOSRegisterDef], ptr @aRegisters, i64 0, i64 %indvars.iv
  %10 = getelementptr inbounds nuw i8, ptr %9, i64 32
  %11 = load ptr, ptr %10, align 8
  %.not = icmp eq ptr %11, null
  %12 = getelementptr inbounds nuw i8, ptr %9, i64 28
  %13 = getelementptr inbounds nuw i8, ptr %9, i64 8
  %14 = load ptr, ptr %13, align 8
  %15 = getelementptr inbounds nuw i8, ptr %9, i64 16
  %16 = load ptr, ptr %15, align 8
  br i1 %.not, label %22, label %17

17:                                               ; preds = %.preheader
  %18 = getelementptr inbounds nuw i8, ptr %9, i64 24
  %19 = load i32, ptr %18, align 8
  %20 = add nuw nsw i64 %indvars.iv, 22
  %21 = getelementptr [44 x %struct.hf_register_info], ptr @proto_register_FiveCoLegacy.hf, i64 0, i64 %20
  store ptr %12, ptr %21, align 16
  %.sroa.42.0..sroa_idx = getelementptr inbounds nuw i8, ptr %21, i64 8
  store ptr %14, ptr %.sroa.42.0..sroa_idx, align 8
  %.sroa.53.0..sroa_idx = getelementptr inbounds nuw i8, ptr %21, i64 16
  store ptr %16, ptr %.sroa.53.0..sroa_idx, align 16
  %.sroa.64.0..sroa_idx = getelementptr inbounds nuw i8, ptr %21, i64 24
  store i32 %19, ptr %.sroa.64.0..sroa_idx, align 8
  %.sroa.75.0..sroa_idx = getelementptr inbounds nuw i8, ptr %21, i64 28
  store i32 6, ptr %.sroa.75.0..sroa_idx, align 4
  %.sroa.86.0..sroa_idx = getelementptr inbounds nuw i8, ptr %21, i64 32
  store ptr %11, ptr %.sroa.86.0..sroa_idx, align 16
  %.sroa.97.0..sroa_idx = getelementptr inbounds nuw i8, ptr %21, i64 40
  %.sroa.119.0..sroa_idx = getelementptr inbounds nuw i8, ptr %21, i64 56
  tail call void @llvm.memset.p0.i64(ptr noundef nonnull align 8 dereferenceable(16) %.sroa.97.0..sroa_idx, i8 0, i64 16, i1 false)
  store i32 -1, ptr %.sroa.119.0..sroa_idx, align 8
  br label %25

22:                                               ; preds = %.preheader
  %23 = add nuw nsw i64 %indvars.iv, 22
  %24 = getelementptr [44 x %struct.hf_register_info], ptr @proto_register_FiveCoLegacy.hf, i64 0, i64 %23
  store ptr %12, ptr %24, align 16
  %.sroa.4.0..sroa_idx = getelementptr inbounds nuw i8, ptr %24, i64 8
  store ptr %14, ptr %.sroa.4.0..sroa_idx, align 8
  %.sroa.5.0..sroa_idx = getelementptr inbounds nuw i8, ptr %24, i64 16
  store ptr %16, ptr %.sroa.5.0..sroa_idx, align 16
  %.sroa.6.0..sroa_idx = getelementptr inbounds nuw i8, ptr %24, i64 24
  %.sroa.11.0..sroa_idx = getelementptr inbounds nuw i8, ptr %24, i64 56
  tail call void @llvm.memset.p0.i64(ptr noundef nonnull align 8 dereferenceable(32) %.sroa.6.0..sroa_idx, i8 0, i64 32, i1 false)
  store i32 -1, ptr %.sroa.11.0..sroa_idx, align 8
  br label %25

25:                                               ; preds = %17, %22
  %.sink40 = phi ptr [ %21, %17 ], [ %24, %22 ]
  %.sroa.1210.0..sroa_idx = getelementptr inbounds nuw i8, ptr %.sink40, i64 60
  store i32 0, ptr %.sroa.1210.0..sroa_idx, align 4
  %.sroa.1311.0..sroa_idx = getelementptr inbounds nuw i8, ptr %.sink40, i64 64
  store i32 0, ptr %.sroa.1311.0..sroa_idx, align 16
  %.sroa.1412.0..sroa_idx = getelementptr inbounds nuw i8, ptr %.sink40, i64 68
  store i32 -1, ptr %.sroa.1412.0..sroa_idx, align 4
  %.sroa.1513.0..sroa_idx = getelementptr inbounds nuw i8, ptr %.sink40, i64 72
  store ptr null, ptr %.sroa.1513.0..sroa_idx, align 8
  %indvars.iv.next = add nuw nsw i64 %indvars.iv, 1
  %exitcond.not = icmp eq i64 %indvars.iv.next, 22
  br i1 %exitcond.not, label %0, label %.preheader, !llvm.loop !6
}